target datalayout = "e-m:e-p270:32:32-p271:32:32-p272:64:64-i64:64-i128:128-f80:128-n8:16:32:64-S128"
target triple = "x86_64-pc-linux-gnu"

%struct.slurm_conf_t = type { i64, ptr, i16, ptr, ptr, ptr, ptr, ptr, i16, ptr, ptr, ptr, ptr, ptr, ptr, ptr, i16, ptr, ptr, ptr, ptr, i16, ptr, ptr, ptr, i64, ptr, ptr, ptr, ptr, i16, ptr, ptr, i16, i32, ptr, i32, ptr, i32, i32, ptr, ptr, i64, i64, ptr, i16, i16, ptr, i32, i32, ptr, i32, ptr, i32, i16, i16, i16, ptr, i16, i16, ptr, ptr, i32, i16, i16, ptr, i32, i16, ptr, ptr, ptr, ptr, i16, ptr, ptr, ptr, ptr, i32, ptr, ptr, ptr, ptr, i16, i16, ptr, i32, i32, i32, i16, i16, ptr, ptr, i16, ptr, ptr, i32, i32, i32, i32, i32, i64, i32, i32, i16, ptr, ptr, i32, ptr, ptr, ptr, i16, i32, ptr, ptr, i16, ptr, ptr, i32, i16, ptr, ptr, ptr, ptr, i32, i32, i16, i16, i32, ptr, i16, ptr, i32, i32, i32, i32, i32, i32, ptr, i16, ptr, ptr, i32, i16, ptr, i32, i16, i16, ptr, ptr, ptr, i16, ptr, ptr, ptr, ptr, i16, i16, ptr, i16, ptr, i16, ptr, i16, ptr, i16, ptr, ptr, ptr, ptr, i16, ptr, ptr, ptr, i32, ptr, i32, ptr, ptr, i16, ptr, ptr, i32, i16, ptr, ptr, i16, i16, ptr, i16, ptr, ptr, ptr, i32, ptr, i16, i16, ptr, ptr, ptr, ptr, ptr, ptr, ptr, ptr, i16, i32, i16, ptr, ptr, ptr, ptr, i32, ptr, ptr, ptr, i16, ptr, ptr, ptr, i16, ptr, i16, ptr, i16, i16, ptr }
%struct.anon = type { i32, i32 }
%struct.data_s = type { i32, i32, %union.anon }
%union.anon = type { ptr }
%struct.data_list_s = type { i32, i64, ptr, ptr }
%struct.data_list_node_s = type { i32, ptr, ptr, ptr }

@slurm_conf = external global %struct.slurm_conf_t, align 8
@.str.34 = private unnamed_addr constant [16 x i8] c"%s: invalid cmd\00", align 1
@.str.36 = private unnamed_addr constant [39 x i8] c"%s: for each attempted on non-dict %pD\00", align 1
@__func__.data_dict_for_each = private unnamed_addr constant [19 x i8] c"data_dict_for_each\00", align 1

; Function Attrs: nounwind uwtable
define internal void @_check_data_list_node_magic(ptr noundef %0) #0 {
  %2 = alloca ptr, align 8
  store ptr %0, ptr %2, align 8
  ret void
}

; Function Attrs: nounwind uwtable
define internal void @_check_data_list_magic(ptr noundef %0) #0 {
  %2 = alloca ptr, align 8
  store ptr %0, ptr %2, align 8
  ret void
}

; Function Attrs: nounwind uwtable
define dso_local i32 @data_get_type(ptr noundef %0) #0 {
  %2 = alloca i32, align 4
  %3 = alloca ptr, align 8
  %4 = alloca i32, align 4
  %5 = alloca i32, align 4
  store ptr %0, ptr %3, align 8
  %6 = load ptr, ptr %3, align 8
  %7 = icmp ne ptr %6, null
  br i1 %7, label %9, label %8

8:                                                ; preds = %1
  store i32 0, ptr %2, align 4
  br label %39

9:                                                ; preds = %1
  %10 = load ptr, ptr %3, align 8
  call void @_check_magic(ptr noundef %10)
  call void @llvm.lifetime.start.p0(i64 4, ptr %4) #10
  store i32 0, ptr %4, align 4
  br label %11

11:                                               ; preds = %33, %9
  %12 = load i32, ptr %4, align 4
  %13 = sext i32 %12 to i64
  %14 = icmp ult i64 %13, 8
  br i1 %14, label %16, label %15

15:                                               ; preds = %11
  store i32 2, ptr %5, align 4
  br label %36

16:                                               ; preds = %11
  %17 = load i32, ptr %4, align 4
  %18 = sext i32 %17 to i64
  %19 = getelementptr inbounds [8 x %struct.anon], ptr @type_map, i64 0, i64 %18
  %20 = getelementptr inbounds nuw %struct.anon, ptr %19, i32 0, i32 1
  %21 = load i32, ptr %20, align 4
  %22 = load ptr, ptr %3, align 8
  %23 = getelementptr inbounds nuw %struct.data_s, ptr %22, i32 0, i32 1
  %24 = load i32, ptr %23, align 4
  %25 = icmp eq i32 %21, %24
  br i1 %25, label %26, label %32

26:                                               ; preds = %16
  %27 = load i32, ptr %4, align 4
  %28 = sext i32 %27 to i64
  %29 = getelementptr inbounds [8 x %struct.anon], ptr @type_map, i64 0, i64 %28
  %30 = getelementptr inbounds nuw %struct.anon, ptr %29, i32 0, i32 0
  %31 = load i32, ptr %30, align 8
  store i32 %31, ptr %2, align 4
  store i32 1, ptr %5, align 4
  br label %36

32:                                               ; preds = %16
  br label %33

33:                                               ; preds = %32
  %34 = load i32, ptr %4, align 4
  %35 = add nsw i32 %34, 1
  store i32 %35, ptr %4, align 4
  br label %11, !llvm.loop !8

36:                                               ; preds = %26, %15
  call void @llvm.lifetime.end.p0(i64 4, ptr %4) #10
  %37 = load i32, ptr %5, align 4
  switch i32 %37, label %41 [
    i32 2, label %38
    i32 1, label %39
  ]

38:                                               ; preds = %36
  store i32 0, ptr %2, align 4
  br label %39

39:                                               ; preds = %38, %36, %8
  %40 = load i32, ptr %2, align 4
  ret i32 %40

41:                                               ; preds = %36
  unreachable
}

; Function Attrs: nounwind uwtable
define internal void @_check_magic(ptr noundef %0) #0 {
  %2 = alloca ptr, align 8
  store ptr %0, ptr %2, align 8
  %3 = load ptr, ptr %2, align 8
  %4 = icmp ne ptr %3, null
  br i1 %4, label %6, label %5

5:                                                ; preds = %1
  br label %29

6:                                                ; preds = %1
  %7 = load i64, ptr getelementptr inbounds nuw (%struct.slurm_conf_t, ptr @slurm_conf, i32 0, i32 42), align 8
  %8 = and i64 %7, 256
  %9 = icmp ne i64 %8, 0
  br i1 %9, label %10, label %29

10:                                               ; preds = %6
  %11 = load ptr, ptr %2, align 8
  %12 = getelementptr inbounds nuw %struct.data_s, ptr %11, i32 0, i32 1
  %13 = load i32, ptr %12, align 4
  %14 = icmp eq i32 %13, 65282
  br i1 %14, label %15, label %19

15:                                               ; preds = %10
  %16 = load ptr, ptr %2, align 8
  %17 = getelementptr inbounds nuw %struct.data_s, ptr %16, i32 0, i32 2
  %18 = load ptr, ptr %17, align 8
  call void @_check_data_list_magic(ptr noundef %18)
  br label %19

19:                                               ; preds = %15, %10
  %20 = load ptr, ptr %2, align 8
  %21 = getelementptr inbounds nuw %struct.data_s, ptr %20, i32 0, i32 1
  %22 = load i32, ptr %21, align 4
  %23 = icmp eq i32 %22, 65283
  br i1 %23, label %24, label %28

24:                                               ; preds = %19
  %25 = load ptr, ptr %2, align 8
  %26 = getelementptr inbounds nuw %struct.data_s, ptr %25, i32 0, i32 2
  %27 = load ptr, ptr %26, align 8
  call void @_check_data_list_magic(ptr noundef %27)
  br label %28

28:                                               ; preds = %24, %19
  br label %29

29:                                               ; preds = %5, %28, %6
  ret void
}

; Function Attrs: nounwind uwtable
define dso_local i32 @data_dict_for_each(ptr noundef %0, ptr noundef %1, ptr noundef %2) #0 {
  %4 = alloca i32, align 4
  %5 = alloca ptr, align 8
  %6 = alloca ptr, align 8
  %7 = alloca ptr, align 8
  %8 = alloca i32, align 4
  %9 = alloca ptr, align 8
  %10 = alloca i32, align 4
  %11 = alloca i32, align 4
  %12 = alloca ptr, align 8
  store ptr %0, ptr %5, align 8
  store ptr %1, ptr %6, align 8
  store ptr %2, ptr %7, align 8
  call void @llvm.lifetime.start.p0(i64 4, ptr %8) #10
  store i32 0, ptr %8, align 4
  call void @llvm.lifetime.start.p0(i64 8, ptr %9) #10
  %13 = load ptr, ptr %5, align 8
  %14 = icmp ne ptr %13, null
  br i1 %14, label %16, label %15

15:                                               ; preds = %3
  store i32 0, ptr %4, align 4
  store i32 1, ptr %10, align 4
  br label %78

16:                                               ; preds = %3
  %17 = load ptr, ptr %5, align 8
  call void @_check_magic(ptr noundef %17)
  %18 = load ptr, ptr %5, align 8
  %19 = call i32 @data_get_type(ptr noundef %18)
  %20 = icmp ne i32 %19, 3
  br i1 %20, label %21, label %24

21:                                               ; preds = %16
  %22 = load ptr, ptr %5, align 8
  %23 = call i32 (ptr, ...) @error(ptr noundef @.str.36, ptr noundef @__func__.data_dict_for_each, ptr noundef %22)
  store i32 -1, ptr %4, align 4
  store i32 1, ptr %10, align 4
  br label %78

24:                                               ; preds = %16
  %25 = load ptr, ptr %5, align 8
  %26 = getelementptr inbounds nuw %struct.data_s, ptr %25, i32 0, i32 2
  %27 = load ptr, ptr %26, align 8
  %28 = getelementptr inbounds nuw %struct.data_list_s, ptr %27, i32 0, i32 2
  %29 = load ptr, ptr %28, align 8
  store ptr %29, ptr %9, align 8
  %30 = load ptr, ptr %5, align 8
  %31 = getelementptr inbounds nuw %struct.data_s, ptr %30, i32 0, i32 2
  %32 = load ptr, ptr %31, align 8
  call void @_check_data_list_magic(ptr noundef %32)
  br label %33

33:                                               ; preds = %75, %24
  %34 = load ptr, ptr %9, align 8
  %35 = icmp ne ptr %34, null
  br i1 %35, label %36, label %76

36:                                               ; preds = %33
  %37 = load ptr, ptr %9, align 8
  call void @_check_data_list_node_magic(ptr noundef %37)
  call void @llvm.lifetime.start.p0(i64 4, ptr %11) #10
  %38 = load ptr, ptr %6, align 8
  %39 = load ptr, ptr %9, align 8
  %40 = getelementptr inbounds nuw %struct.data_list_node_s, ptr %39, i32 0, i32 3
  %41 = load ptr, ptr %40, align 8
  %42 = load ptr, ptr %9, align 8
  %43 = getelementptr inbounds nuw %struct.data_list_node_s, ptr %42, i32 0, i32 2
  %44 = load ptr, ptr %43, align 8
  %45 = load ptr, ptr %7, align 8
  %46 = call i32 %38(ptr noundef %41, ptr noundef %44, ptr noundef %45)
  store i32 %46, ptr %11, align 4
  %47 = load i32, ptr %8, align 4
  %48 = add nsw i32 %47, 1
  store i32 %48, ptr %8, align 4
  %49 = load i32, ptr %11, align 4
  switch i32 %49, label %74 [
    i32 1, label %50
    i32 2, label %58
    i32 4, label %70
    i32 3, label %73
  ]

50:                                               ; preds = %36
  %51 = load ptr, ptr %9, align 8
  %52 = icmp ne ptr %51, null
  br i1 %52, label %53, label %57

53:                                               ; preds = %50
  %54 = load ptr, ptr %9, align 8
  %55 = getelementptr inbounds nuw %struct.data_list_node_s, ptr %54, i32 0, i32 1
  %56 = load ptr, ptr %55, align 8
  store ptr %56, ptr %9, align 8
  br label %57

57:                                               ; preds = %53, %50
  br label %75

58:                                               ; preds = %36
  call void @llvm.lifetime.start.p0(i64 8, ptr %12) #10
  %59 = load ptr, ptr %9, align 8
  store ptr %59, ptr %12, align 8
  %60 = load ptr, ptr %9, align 8
  %61 = getelementptr inbounds nuw %struct.data_list_node_s, ptr %60, i32 0, i32 1
  %62 = load ptr, ptr %61, align 8
  store ptr %62, ptr %9, align 8
  %63 = load ptr, ptr %5, align 8
  %64 = getelementptr inbounds nuw %struct.data_s, ptr %63, i32 0, i32 2
  %65 = load ptr, ptr %64, align 8
  %66 = load ptr, ptr %12, align 8
  call void @_release_data_list_node(ptr noundef %65, ptr noundef %66)
  %67 = load ptr, ptr %5, align 8
  %68 = getelementptr inbounds nuw %struct.data_s, ptr %67, i32 0, i32 2
  %69 = load ptr, ptr %68, align 8
  call void @_check_data_list_magic(ptr noundef %69)
  store i32 4, ptr %10, align 4
  call void @llvm.lifetime.end.p0(i64 8, ptr %12) #10
  br label %75

70:                                               ; preds = %36
  %71 = load i32, ptr %8, align 4
  %72 = mul nsw i32 %71, -1
  store i32 %72, ptr %8, align 4
  br label %73

73:                                               ; preds = %36, %70
  store ptr null, ptr %9, align 8
  br label %75

74:                                               ; preds = %36
  call void (ptr, ...) @fatal_abort(ptr noundef @.str.34, ptr noundef @__func__.data_dict_for_each) #12
  unreachable

75:                                               ; preds = %73, %58, %57
  call void @llvm.lifetime.end.p0(i64 4, ptr %11) #10
  br label %33, !llvm.loop !26

76:                                               ; preds = %33
  %77 = load i32, ptr %8, align 4
  store i32 %77, ptr %4, align 4
  store i32 1, ptr %10, align 4
  br label %78

78:                                               ; preds = %76, %21, %15
  call void @llvm.lifetime.end.p0(i64 8, ptr %9) #10
  call void @llvm.lifetime.end.p0(i64 4, ptr %8) #10
  %79 = load i32, ptr %4, align 4
  ret i32 %79
}